; Function Attrs: mustprogress nounwind uwtable
define hidden void @_ZN18ObjectSynchronizer29request_deflate_idle_monitorsEv() local_unnamed_addr #0 align 2 {
  %1 = load ptr, ptr @MonitorDeflation_lock, align 8
  %.not.i.i = icmp eq ptr %1, null
  br i1 %.not.i.i, label %_ZN13MonitorLockerD2Ev.exit, label %2

2:                                                ; preds = %0
  tail call void @_ZN5Mutex28lock_without_safepoint_checkEv(ptr noundef nonnull align 8 dereferenceable(104) %1) #18
  br label %_ZN13MonitorLockerD2Ev.exit

_ZN13MonitorLockerD2Ev.exit:                      ; preds = %0, %2
  store volatile i8 1, ptr @_ZN18ObjectSynchronizer29_is_async_deflation_requestedE, align 1
  tail call void @_ZN7Monitor10notify_allEv(ptr noundef nonnull align 8 dereferenceable(104) %1) #18
  tail call void @_ZN5Mutex6unlockEv(ptr noundef nonnull align 8 dereferenceable(104) %1) #18
  ret void
}